target datalayout = "e-m:e-p270:32:32-p271:32:32-p272:64:64-i64:64-i128:128-f80:128-n8:16:32:64-S128"
target triple = "x86_64-pc-linux-gnu"

; Function Attrs: nounwind uwtable
define internal ptr @ecpg_strndup(ptr noundef %0, i64 noundef %1) #0 {
  %3 = alloca ptr, align 8
  %4 = alloca i64, align 8
  %5 = alloca i64, align 8
  %6 = alloca i32, align 4
  %7 = alloca ptr, align 8
  store ptr %0, ptr %3, align 8
  store i64 %1, ptr %4, align 8
  call void @llvm.lifetime.start.p0(i64 8, ptr %5) #9
  %8 = load ptr, ptr %3, align 8
  %9 = call i64 @strlen(ptr noundef %8) #10
  store i64 %9, ptr %5, align 8
  call void @llvm.lifetime.start.p0(i64 4, ptr %6) #9
  %10 = load i64, ptr %5, align 8
  %11 = load i64, ptr %4, align 8
  %12 = icmp ugt i64 %10, %11
  br i1 %12, label %13, label %15

13:                                               ; preds = %2
  %14 = load i64, ptr %4, align 8
  br label %17

15:                                               ; preds = %2
  %16 = load i64, ptr %5, align 8
  br label %17

17:                                               ; preds = %15, %13
  %18 = phi i64 [ %14, %13 ], [ %16, %15 ]
  %19 = trunc i64 %18 to i32
  store i32 %19, ptr %6, align 4
  call void @llvm.lifetime.start.p0(i64 8, ptr %7) #9
  %20 = load i32, ptr %6, align 4
  %21 = add i32 %20, 1
  %22 = sext i32 %21 to i64
  %23 = call noalias ptr @malloc(i64 noundef %22) #11
  store ptr %23, ptr %7, align 8
  %24 = load ptr, ptr %7, align 8
  %25 = icmp ne ptr %24, null
  br i1 %25, label %26, label %35

26:                                               ; preds = %17
  %27 = load ptr, ptr %7, align 8
  %28 = load ptr, ptr %3, align 8
  %29 = load i32, ptr %6, align 4
  %30 = sext i32 %29 to i64
  call void @llvm.memcpy.p0.p0.i64(ptr align 1 %27, ptr align 1 %28, i64 %30, i1 false)
  %31 = load ptr, ptr %7, align 8
  %32 = load i32, ptr %6, align 4
  %33 = sext i32 %32 to i64
  %34 = getelementptr inbounds i8, ptr %31, i64 %33
  store i8 0, ptr %34, align 1
  br label %37

35:                                               ; preds = %17
  %36 = call ptr @__errno_location() #8
  store i32 12, ptr %36, align 4
  br label %37

37:                                               ; preds = %35, %26
  %38 = load ptr, ptr %7, align 8
  call void @llvm.lifetime.end.p0(i64 8, ptr %7) #9
  call void @llvm.lifetime.end.p0(i64 4, ptr %6) #9
  call void @llvm.lifetime.end.p0(i64 8, ptr %5) #9
  ret ptr %38
}

; Function Attrs: nounwind uwtable
define i32 @risnull(i32 noundef %0, ptr noundef %1) #0 {
  %3 = alloca i32, align 4
  %4 = alloca ptr, align 8
  store i32 %0, ptr %3, align 4
  store ptr %1, ptr %4, align 8
  %5 = load i32, ptr %3, align 4
  %6 = load ptr, ptr %4, align 8
  %7 = call zeroext i1 @ECPGis_noind_null(i32 noundef %5, ptr noundef %6)
  %8 = zext i1 %7 to i32
  ret i32 %8
}

; Function Attrs: nounwind uwtable
define i32 @rsetnull(i32 noundef %0, ptr noundef %1) #0 {
  %3 = alloca i32, align 4
  %4 = alloca ptr, align 8
  store i32 %0, ptr %3, align 4
  store ptr %1, ptr %4, align 8
  %5 = load i32, ptr %3, align 4
  %6 = load ptr, ptr %4, align 8
  call void @ECPGset_noind_null(i32 noundef %5, ptr noundef %6)
  ret i32 0
}

; Function Attrs: nounwind uwtable
define i32 @deccvasc(ptr noundef %0, i32 noundef %1, ptr noundef %2) #0 {
  %4 = alloca i32, align 4
  %5 = alloca ptr, align 8
  %6 = alloca i32, align 4
  %7 = alloca ptr, align 8
  %8 = alloca ptr, align 8
  %9 = alloca i32, align 4
  %10 = alloca ptr, align 8
  %11 = alloca i32, align 4
  %12 = alloca i32, align 4
  store ptr %0, ptr %5, align 8
  store i32 %1, ptr %6, align 4
  store ptr %2, ptr %7, align 8
  call void @llvm.lifetime.start.p0(i64 8, ptr %8) #9
  call void @llvm.lifetime.start.p0(i64 4, ptr %9) #9
  store i32 0, ptr %9, align 4
  call void @llvm.lifetime.start.p0(i64 8, ptr %10) #9
  %13 = load ptr, ptr %7, align 8
  %14 = call i32 @rsetnull(i32 noundef 17, ptr noundef %13)
  %15 = load ptr, ptr %5, align 8
  %16 = call i32 @risnull(i32 noundef 1, ptr noundef %15)
  %17 = icmp ne i32 %16, 0
  br i1 %17, label %18, label %19

18:                                               ; preds = %3
  store i32 0, ptr %4, align 4
  store i32 1, ptr %11, align 4
  br label %53

19:                                               ; preds = %3
  %20 = load ptr, ptr %5, align 8
  %21 = load i32, ptr %6, align 4
  %22 = sext i32 %21 to i64
  %23 = call ptr @ecpg_strndup(ptr noundef %20, i64 noundef %22)
  store ptr %23, ptr %8, align 8
  %24 = load ptr, ptr %8, align 8
  %25 = icmp ne ptr %24, null
  br i1 %25, label %27, label %26

26:                                               ; preds = %19
  store i32 -1201, ptr %9, align 4
  br label %50

27:                                               ; preds = %19
  %28 = call ptr @__errno_location() #8
  store i32 0, ptr %28, align 4
  %29 = load ptr, ptr %8, align 8
  %30 = call ptr @PGTYPESnumeric_from_asc(ptr noundef %29, ptr noundef null)
  store ptr %30, ptr %10, align 8
  %31 = load ptr, ptr %10, align 8
  %32 = icmp ne ptr %31, null
  br i1 %32, label %40, label %33

33:                                               ; preds = %27
  %34 = call ptr @__errno_location() #8
  %35 = load i32, ptr %34, align 4
  switch i32 %35, label %38 [
    i32 301, label %36
    i32 302, label %37
  ]

36:                                               ; preds = %33
  store i32 -1200, ptr %9, align 4
  br label %39

37:                                               ; preds = %33
  store i32 -1213, ptr %9, align 4
  br label %39

38:                                               ; preds = %33
  store i32 -1216, ptr %9, align 4
  br label %39

39:                                               ; preds = %38, %37, %36
  br label %49

40:                                               ; preds = %27
  call void @llvm.lifetime.start.p0(i64 4, ptr %12) #9
  %41 = load ptr, ptr %10, align 8
  %42 = load ptr, ptr %7, align 8
  %43 = call i32 @PGTYPESnumeric_to_decimal(ptr noundef %41, ptr noundef %42)
  store i32 %43, ptr %12, align 4
  %44 = load ptr, ptr %10, align 8
  call void @PGTYPESnumeric_free(ptr noundef %44)
  %45 = load i32, ptr %12, align 4
  %46 = icmp ne i32 %45, 0
  br i1 %46, label %47, label %48

47:                                               ; preds = %40
  store i32 -1200, ptr %9, align 4
  br label %48

48:                                               ; preds = %47, %40
  call void @llvm.lifetime.end.p0(i64 4, ptr %12) #9
  br label %49

49:                                               ; preds = %48, %39
  br label %50

50:                                               ; preds = %49, %26
  %51 = load ptr, ptr %8, align 8
  call void @free(ptr noundef %51) #9
  %52 = load i32, ptr %9, align 4
  store i32 %52, ptr %4, align 4
  store i32 1, ptr %11, align 4
  br label %53

53:                                               ; preds = %50, %18
  call void @llvm.lifetime.end.p0(i64 8, ptr %10) #9
  call void @llvm.lifetime.end.p0(i64 4, ptr %9) #9
  call void @llvm.lifetime.end.p0(i64 8, ptr %8) #9
  %54 = load i32, ptr %4, align 4
  ret i32 %54
}