; Function Attrs: nounwind uwtable
define range(i32 -1216, 1) i32 @deccvasc(ptr noundef %0, i32 noundef %1, ptr noundef %2) local_unnamed_addr #0 {
  tail call void @ECPGset_noind_null(i32 noundef 17, ptr noundef %2) #16
  %4 = tail call zeroext i1 @ECPGis_noind_null(i32 noundef 1, ptr noundef %0) #16
  br i1 %4, label %23, label %5

5:                                                ; preds = %3
  %6 = sext i32 %1 to i64
  %7 = tail call i64 @strlen(ptr noundef nonnull readonly dereferenceable(1) %0) #17
  %8 = tail call i64 @llvm.umin.i64(i64 %7, i64 range(i64 -2147483648, 2147483648) %6)
  %9 = shl i64 %8, 32
  %sext.i = add i64 %9, 4294967296
  %10 = ashr exact i64 %sext.i, 32
  %11 = tail call noalias ptr @malloc(i64 noundef %10) #18
  %.not.i = icmp eq ptr %11, null
  br i1 %.not.i, label %ecpg_strndup.exit.thread, label %13

ecpg_strndup.exit.thread:                         ; preds = %5
  %12 = tail call ptr @__errno_location() #15
  store i32 12, ptr %12, align 4
  br label %22

13:                                               ; preds = %5
  %14 = ashr exact i64 %9, 32
  tail call void @llvm.memcpy.p0.p0.i64(ptr nonnull align 1 %11, ptr nonnull readonly align 1 %0, i64 %14, i1 false)
  %15 = getelementptr inbounds i8, ptr %11, i64 %14
  store i8 0, ptr %15, align 1
  %16 = tail call ptr @__errno_location() #15
  store i32 0, ptr %16, align 4
  %17 = tail call ptr @PGTYPESnumeric_from_asc(ptr noundef nonnull %11, ptr noundef null) #16
  %.not17 = icmp eq ptr %17, null
  br i1 %.not17, label %18, label %20

18:                                               ; preds = %13
  %19 = load i32, ptr %16, align 4
  %switch.selectcmp = icmp eq i32 %19, 302
  %switch.select = select i1 %switch.selectcmp, i32 -1213, i32 -1216
  %switch.selectcmp19 = icmp eq i32 %19, 301
  %switch.select20 = select i1 %switch.selectcmp19, i32 -1200, i32 %switch.select
  br label %22

20:                                               ; preds = %13
  %21 = tail call i32 @PGTYPESnumeric_to_decimal(ptr noundef nonnull %17, ptr noundef %2) #16
  tail call void @PGTYPESnumeric_free(ptr noundef nonnull %17) #16
  %.not18 = icmp eq i32 %21, 0
  %spec.select = select i1 %.not18, i32 0, i32 -1200
  br label %22

22:                                               ; preds = %ecpg_strndup.exit.thread, %18, %20
  %.013 = phi i32 [ %spec.select, %20 ], [ %switch.select20, %18 ], [ -1201, %ecpg_strndup.exit.thread ]
  tail call void @free(ptr noundef %11) #16
  br label %23

23:                                               ; preds = %3, %22
  %.0 = phi i32 [ %.013, %22 ], [ 0, %3 ]
  ret i32 %.0
}